; Function Attrs: null_pointer_is_valid sspstrong uwtable
define internal void @dtap_sm_status(ptr noundef %0, ptr noundef %1, ptr noundef initializes((348, 352), (384, 388)) %2, i32 noundef %3, i32 noundef %4) #1 {
  %6 = getelementptr inbounds nuw i8, ptr %2, i64 348
  store i32 -1, ptr %6, align 4
  %7 = getelementptr inbounds nuw i8, ptr %2, i64 384
  store i32 -1, ptr %7, align 8
  %8 = icmp sgt i32 %4, 0
  br i1 %8, label %9, label %15

9:                                                ; preds = %5
  %10 = tail call zeroext i16 @elem_v(ptr noundef %0, ptr noundef %1, ptr noundef %2, i32 noundef 5, i32 noundef 51, i32 noundef %3, ptr noundef null)
  %.not = icmp eq i16 %10, 0
  br i1 %.not, label %15, label %11

11:                                               ; preds = %9
  %12 = zext i16 %10 to i32
  %13 = add i32 %3, %12
  %14 = sub nsw i32 %4, %12
  br label %18

15:                                               ; preds = %9, %5
  %16 = tail call ptr @get_gsm_a_msg_string(i32 noundef 5, i32 noundef 51)
  %17 = tail call ptr (ptr, ptr, ptr, ptr, i32, i32, ptr, ...) @proto_tree_add_expert_format(ptr noundef %1, ptr noundef %2, ptr noundef nonnull @ei_gsm_a_gm_missing_mandatory_element, ptr noundef %0, i32 noundef %3, i32 noundef 0, ptr noundef nonnull @.str.1095, ptr noundef %16, ptr noundef nonnull @.str.83)
  br label %18

18:                                               ; preds = %15, %11
  %.024 = phi i32 [ %13, %11 ], [ %3, %15 ]
  %.0 = phi i32 [ %14, %11 ], [ %4, %15 ]
  %.not27 = icmp eq i32 %.0, 0
  br i1 %.not27, label %21, label %19

19:                                               ; preds = %18
  %20 = tail call ptr @proto_tree_add_expert(ptr noundef %1, ptr noundef %2, ptr noundef nonnull @ei_gsm_a_gm_extraneous_data, ptr noundef %0, i32 noundef %.024, i32 noundef %.0)
  br label %21

21:                                               ; preds = %19, %18
  ret void
}